target datalayout = "e-m:e-p270:32:32-p271:32:32-p272:64:64-i64:64-i128:128-f80:128-n8:16:32:64-S128"
target triple = "x86_64-pc-linux-gnu"

%"class.clang::QualType" = type { %"class.llvm::PointerIntPair.53" }
%"class.llvm::PointerIntPair.53" = type { %"struct.llvm::detail::PunnedPointer.54" }
%"struct.llvm::detail::PunnedPointer.54" = type { [8 x i8] }
%"class.clang::ExtQualsTypeCommonBase" = type { ptr, %"class.clang::QualType" }
%"class.clang::Type.base" = type { %"class.clang::ExtQualsTypeCommonBase", %union.anon.87 }
%union.anon.87 = type { %"class.clang::Type::FunctionTypeBitfields" }
%"class.clang::Type::FunctionTypeBitfields" = type { i64 }
%"class.llvm::FoldingSetBase::Node" = type { ptr }
%"class.clang::PackIndexingType" = type <{ %"class.clang::Type.base", %"class.llvm::FoldingSetBase::Node", ptr, %"class.clang::QualType", ptr, i32, [4 x i8] }>

; Function Attrs: mustprogress nounwind uwtable
define internal noundef zeroext i1 @_ZN5clang19RecursiveASTVisitorIN12_GLOBAL__N_114NamesCollectorEE9VisitTypeEPNS_4TypeE(ptr noundef nonnull align 1 dereferenceable(1) %0, ptr noundef %1) #0 align 2 {
  %3 = alloca ptr, align 8
  %4 = alloca ptr, align 8
  store ptr %0, ptr %3, align 8
  store ptr %1, ptr %4, align 8
  ret i1 true
}

; Function Attrs: mustprogress nounwind uwtable
define internal noundef zeroext i1 @_ZN5clang19RecursiveASTVisitorIN12_GLOBAL__N_114NamesCollectorEE21VisitPackIndexingTypeEPNS_16PackIndexingTypeE(ptr noundef nonnull align 1 dereferenceable(1) %0, ptr noundef %1) #0 align 2 {
  %3 = alloca ptr, align 8
  %4 = alloca ptr, align 8
  store ptr %0, ptr %3, align 8
  store ptr %1, ptr %4, align 8
  ret i1 true
}

; Function Attrs: mustprogress nounwind uwtable
define internal noundef zeroext i1 @_ZN5clang19RecursiveASTVisitorIN12_GLOBAL__N_114NamesCollectorEE14WalkUpFromTypeEPNS_4TypeE(ptr noundef nonnull align 1 dereferenceable(1) %0, ptr noundef %1) #0 align 2 {
  %3 = alloca ptr, align 8
  %4 = alloca ptr, align 8
  store ptr %0, ptr %3, align 8
  store ptr %1, ptr %4, align 8
  %5 = load ptr, ptr %3, align 8
  %6 = call noundef nonnull align 8 dereferenceable(96) ptr @_ZN5clang19RecursiveASTVisitorIN12_GLOBAL__N_114NamesCollectorEE10getDerivedEv(ptr noundef nonnull align 1 dereferenceable(1) %5)
  %7 = load ptr, ptr %4, align 8
  %8 = call noundef zeroext i1 @_ZN5clang19RecursiveASTVisitorIN12_GLOBAL__N_114NamesCollectorEE9VisitTypeEPNS_4TypeE(ptr noundef nonnull align 1 dereferenceable(1) %6, ptr noundef %7)
  ret i1 %8
}

; Function Attrs: mustprogress nounwind uwtable
define linkonce_odr hidden noundef ptr @_ZNK5clang16PackIndexingType12getIndexExprEv(ptr noundef nonnull align 16 dereferenceable(64) %0) #0 comdat align 2 {
  %2 = alloca ptr, align 8
  store ptr %0, ptr %2, align 8
  %3 = load ptr, ptr %2, align 8
  %4 = getelementptr inbounds nuw %"class.clang::PackIndexingType", ptr %3, i32 0, i32 4
  %5 = load ptr, ptr %4, align 16
  ret ptr %5
}

; Function Attrs: mustprogress nounwind uwtable
define linkonce_odr hidden i64 @_ZNK5clang16PackIndexingType10getPatternEv(ptr noundef nonnull align 16 dereferenceable(64) %0) #0 comdat align 2 {
  %2 = alloca %"class.clang::QualType", align 8
  %3 = alloca ptr, align 8
  store ptr %0, ptr %3, align 8
  %4 = load ptr, ptr %3, align 8
  %5 = getelementptr inbounds nuw %"class.clang::PackIndexingType", ptr %4, i32 0, i32 3
  call void @llvm.memcpy.p0.p0.i64(ptr align 8 %2, ptr align 8 %5, i64 8, i1 false)
  %6 = getelementptr inbounds nuw %"class.clang::QualType", ptr %2, i32 0, i32 0
  %7 = getelementptr inbounds nuw %"class.llvm::PointerIntPair.53", ptr %6, i32 0, i32 0
  %8 = getelementptr inbounds nuw %"struct.llvm::detail::PunnedPointer.54", ptr %7, i32 0, i32 0
  %9 = load i64, ptr %8, align 8
  ret i64 %9
}

; Function Attrs: mustprogress nounwind uwtable
define internal noundef zeroext i1 @_ZN5clang19RecursiveASTVisitorIN12_GLOBAL__N_114NamesCollectorEE26WalkUpFromPackIndexingTypeEPNS_16PackIndexingTypeE(ptr noundef nonnull align 1 dereferenceable(1) %0, ptr noundef %1) #0 align 2 {
  %3 = alloca i1, align 1
  %4 = alloca ptr, align 8
  %5 = alloca ptr, align 8
  store ptr %0, ptr %4, align 8
  store ptr %1, ptr %5, align 8
  %6 = load ptr, ptr %4, align 8
  br label %7

7:                                                ; preds = %2
  %8 = call noundef nonnull align 8 dereferenceable(96) ptr @_ZN5clang19RecursiveASTVisitorIN12_GLOBAL__N_114NamesCollectorEE10getDerivedEv(ptr noundef nonnull align 1 dereferenceable(1) %6)
  %9 = load ptr, ptr %5, align 8
  %10 = call noundef zeroext i1 @_ZN5clang19RecursiveASTVisitorIN12_GLOBAL__N_114NamesCollectorEE14WalkUpFromTypeEPNS_4TypeE(ptr noundef nonnull align 1 dereferenceable(1) %8, ptr noundef %9)
  br i1 %10, label %12, label %11

11:                                               ; preds = %7
  store i1 false, ptr %3, align 1
  br label %21

12:                                               ; preds = %7
  br label %13

13:                                               ; preds = %12
  br label %14

14:                                               ; preds = %13
  %15 = call noundef nonnull align 8 dereferenceable(96) ptr @_ZN5clang19RecursiveASTVisitorIN12_GLOBAL__N_114NamesCollectorEE10getDerivedEv(ptr noundef nonnull align 1 dereferenceable(1) %6)
  %16 = load ptr, ptr %5, align 8
  %17 = call noundef zeroext i1 @_ZN5clang19RecursiveASTVisitorIN12_GLOBAL__N_114NamesCollectorEE21VisitPackIndexingTypeEPNS_16PackIndexingTypeE(ptr noundef nonnull align 1 dereferenceable(1) %15, ptr noundef %16)
  br i1 %17, label %19, label %18

18:                                               ; preds = %14
  store i1 false, ptr %3, align 1
  br label %21

19:                                               ; preds = %14
  br label %20

20:                                               ; preds = %19
  store i1 true, ptr %3, align 1
  br label %21

21:                                               ; preds = %20, %18, %11
  %22 = load i1, ptr %3, align 1
  ret i1 %22
}

; Function Attrs: mustprogress nounwind uwtable
define internal noundef zeroext i1 @_ZNK5clang19RecursiveASTVisitorIN12_GLOBAL__N_114NamesCollectorEE23shouldTraversePostOrderEv(ptr noundef nonnull align 1 dereferenceable(1) %0) #0 align 2 {
  %2 = alloca ptr, align 8
  store ptr %0, ptr %2, align 8
  ret i1 false
}

; Function Attrs: mustprogress nounwind uwtable
define internal noundef nonnull align 8 dereferenceable(96) ptr @_ZN5clang19RecursiveASTVisitorIN12_GLOBAL__N_114NamesCollectorEE10getDerivedEv(ptr noundef nonnull align 1 dereferenceable(1) %0) #0 align 2 {
  %2 = alloca ptr, align 8
  store ptr %0, ptr %2, align 8
  %3 = load ptr, ptr %2, align 8
  ret ptr %3
}

; Function Attrs: mustprogress nounwind uwtable
define internal noundef zeroext i1 @_ZN5clang19RecursiveASTVisitorIN12_GLOBAL__N_114NamesCollectorEE24TraversePackIndexingTypeEPNS_16PackIndexingTypeE(ptr noundef nonnull align 1 dereferenceable(1) %0, ptr noundef %1) #0 align 2 {
  %3 = alloca i1, align 1
  %4 = alloca ptr, align 8
  %5 = alloca ptr, align 8
  %6 = alloca %"class.clang::QualType", align 8
  store ptr %0, ptr %4, align 8
  store ptr %1, ptr %5, align 8
  %7 = load ptr, ptr %4, align 8
  %8 = call noundef nonnull align 8 dereferenceable(96) ptr @_ZN5clang19RecursiveASTVisitorIN12_GLOBAL__N_114NamesCollectorEE10getDerivedEv(ptr noundef nonnull align 1 dereferenceable(1) %7)
  %9 = call noundef zeroext i1 @_ZNK5clang19RecursiveASTVisitorIN12_GLOBAL__N_114NamesCollectorEE23shouldTraversePostOrderEv(ptr noundef nonnull align 1 dereferenceable(1) %8)
  br i1 %9, label %18, label %10

10:                                               ; preds = %2
  br label %11

11:                                               ; preds = %10
  %12 = call noundef nonnull align 8 dereferenceable(96) ptr @_ZN5clang19RecursiveASTVisitorIN12_GLOBAL__N_114NamesCollectorEE10getDerivedEv(ptr noundef nonnull align 1 dereferenceable(1) %7)
  %13 = load ptr, ptr %5, align 8
  %14 = call noundef zeroext i1 @_ZN5clang19RecursiveASTVisitorIN12_GLOBAL__N_114NamesCollectorEE26WalkUpFromPackIndexingTypeEPNS_16PackIndexingTypeE(ptr noundef nonnull align 1 dereferenceable(1) %12, ptr noundef %13)
  br i1 %14, label %16, label %15

15:                                               ; preds = %11
  store i1 false, ptr %3, align 1
  br label %53

16:                                               ; preds = %11
  br label %17

17:                                               ; preds = %16
  br label %18

18:                                               ; preds = %17, %2
  br label %19

19:                                               ; preds = %18
  %20 = call noundef nonnull align 8 dereferenceable(96) ptr @_ZN5clang19RecursiveASTVisitorIN12_GLOBAL__N_114NamesCollectorEE10getDerivedEv(ptr noundef nonnull align 1 dereferenceable(1) %7)
  %21 = load ptr, ptr %5, align 8
  %22 = call i64 @_ZNK5clang16PackIndexingType10getPatternEv(ptr noundef nonnull align 16 dereferenceable(64) %21)
  %23 = getelementptr inbounds nuw %"class.clang::QualType", ptr %6, i32 0, i32 0
  %24 = getelementptr inbounds nuw %"class.llvm::PointerIntPair.53", ptr %23, i32 0, i32 0
  %25 = getelementptr inbounds nuw %"struct.llvm::detail::PunnedPointer.54", ptr %24, i32 0, i32 0
  store i64 %22, ptr %25, align 8
  %26 = getelementptr inbounds nuw %"class.clang::QualType", ptr %6, i32 0, i32 0
  %27 = getelementptr inbounds nuw %"class.llvm::PointerIntPair.53", ptr %26, i32 0, i32 0
  %28 = getelementptr inbounds nuw %"struct.llvm::detail::PunnedPointer.54", ptr %27, i32 0, i32 0
  %29 = load i64, ptr %28, align 8
  %30 = call noundef zeroext i1 @_ZN5clang19RecursiveASTVisitorIN12_GLOBAL__N_114NamesCollectorEE12TraverseTypeENS_8QualTypeE(ptr noundef nonnull align 1 dereferenceable(1) %20, i64 %29)
  br i1 %30, label %32, label %31

31:                                               ; preds = %19
  store i1 false, ptr %3, align 1
  br label %53

32:                                               ; preds = %19
  br label %33

33:                                               ; preds = %32
  br label %34

34:                                               ; preds = %33
  %35 = call noundef nonnull align 8 dereferenceable(96) ptr @_ZN5clang19RecursiveASTVisitorIN12_GLOBAL__N_114NamesCollectorEE10getDerivedEv(ptr noundef nonnull align 1 dereferenceable(1) %7)
  %36 = load ptr, ptr %5, align 8
  %37 = call noundef ptr @_ZNK5clang16PackIndexingType12getIndexExprEv(ptr noundef nonnull align 16 dereferenceable(64) %36)
  %38 = call noundef zeroext i1 @_ZN5clang19RecursiveASTVisitorIN12_GLOBAL__N_114NamesCollectorEE12TraverseStmtEPNS_4StmtEPN4llvm15SmallVectorImplINS6_14PointerIntPairIS5_Lj1EbNS6_21PointerLikeTypeTraitsIS5_EENS6_18PointerIntPairInfoIS5_Lj1ESA_EEEEEE(ptr noundef nonnull align 1 dereferenceable(1) %35, ptr noundef %37, ptr noundef null)
  br i1 %38, label %40, label %39

39:                                               ; preds = %34
  store i1 false, ptr %3, align 1
  br label %53

40:                                               ; preds = %34
  br label %41

41:                                               ; preds = %40
  %42 = call noundef nonnull align 8 dereferenceable(96) ptr @_ZN5clang19RecursiveASTVisitorIN12_GLOBAL__N_114NamesCollectorEE10getDerivedEv(ptr noundef nonnull align 1 dereferenceable(1) %7)
  %43 = call noundef zeroext i1 @_ZNK5clang19RecursiveASTVisitorIN12_GLOBAL__N_114NamesCollectorEE23shouldTraversePostOrderEv(ptr noundef nonnull align 1 dereferenceable(1) %42)
  br i1 %43, label %44, label %52

44:                                               ; preds = %41
  br label %45

45:                                               ; preds = %44
  %46 = call noundef nonnull align 8 dereferenceable(96) ptr @_ZN5clang19RecursiveASTVisitorIN12_GLOBAL__N_114NamesCollectorEE10getDerivedEv(ptr noundef nonnull align 1 dereferenceable(1) %7)
  %47 = load ptr, ptr %5, align 8
  %48 = call noundef zeroext i1 @_ZN5clang19RecursiveASTVisitorIN12_GLOBAL__N_114NamesCollectorEE26WalkUpFromPackIndexingTypeEPNS_16PackIndexingTypeE(ptr noundef nonnull align 1 dereferenceable(1) %46, ptr noundef %47)
  br i1 %48, label %50, label %49

49:                                               ; preds = %45
  store i1 false, ptr %3, align 1
  br label %53

50:                                               ; preds = %45
  br label %51

51:                                               ; preds = %50
  br label %52

52:                                               ; preds = %51, %41
  store i1 true, ptr %3, align 1
  br label %53

53:                                               ; preds = %52, %49, %39, %31, %15
  %54 = load i1, ptr %3, align 1
  ret i1 %54
}